target datalayout = "e-m:e-p270:32:32-p271:32:32-p272:64:64-i64:64-i128:128-f80:128-n8:16:32:64-S128"
target triple = "x86_64-pc-linux-gnu"

%struct.ec_group_st = type { ptr, ptr, ptr, ptr, i32, i32, i32, i32, ptr, i64, ptr, [6 x i32], ptr, ptr, i32, ptr, ptr, ptr, ptr, i32, %union.anon, ptr, ptr }
%union.anon = type { ptr }
%struct.ec_key_st = type { ptr, ptr, i32, ptr, ptr, ptr, i32, i32, %struct.CRYPTO_REF_COUNT, i32, %struct.crypto_ex_data_st, ptr, ptr, i64 }
%struct.CRYPTO_REF_COUNT = type { i32 }
%struct.crypto_ex_data_st = type { ptr, ptr }
%struct.ec_method_st = type { i32, i32, ptr, ptr, ptr, ptr, ptr, ptr, ptr, ptr, ptr, ptr, ptr, ptr, ptr, ptr, ptr, ptr, ptr, ptr, ptr, ptr, ptr, ptr, ptr, ptr, ptr, ptr, ptr, ptr, ptr, ptr, ptr, ptr, ptr, ptr, ptr, ptr, ptr, ptr, ptr, ptr, ptr, ptr, ptr, ptr, ptr, ptr, ptr, ptr, ptr, ptr, ptr, ptr, ptr, ptr, ptr }
%struct.ec_key_method_st = type { ptr, i32, ptr, ptr, ptr, ptr, ptr, ptr, ptr, ptr, ptr, ptr, ptr, ptr, ptr }

@.str = private unnamed_addr constant [34 x i8] c"../openssl/crypto/ec/ec_backend.c\00", align 1
@__func__.ossl_ec_key_dup = private unnamed_addr constant [16 x i8] c"ossl_ec_key_dup\00", align 1

; Function Attrs: nounwind uwtable
define ptr @ossl_ec_key_dup(ptr noundef %0, i32 noundef %1) #0 {
  %3 = alloca ptr, align 8
  %4 = alloca ptr, align 8
  %5 = alloca i32, align 4
  %6 = alloca ptr, align 8
  %7 = alloca i32, align 4
  store ptr %0, ptr %4, align 8, !tbaa !18
  store i32 %1, ptr %5, align 4, !tbaa !16
  call void @llvm.lifetime.start.p0(i64 8, ptr %6) #3
  %8 = load ptr, ptr %4, align 8, !tbaa !18
  %9 = icmp eq ptr %8, null
  br i1 %9, label %10, label %11

10:                                               ; preds = %2
  call void @ERR_new()
  call void @ERR_set_debug(ptr noundef @.str, i32 noundef 602, ptr noundef @__func__.ossl_ec_key_dup)
  call void (i32, i32, ptr, ...) @ERR_set_error(i32 noundef 16, i32 noundef 786690, ptr noundef null)
  store ptr null, ptr %3, align 8
  store i32 1, ptr %7, align 4
  br label %233

11:                                               ; preds = %2
  %12 = load ptr, ptr %4, align 8, !tbaa !18
  %13 = getelementptr inbounds nuw %struct.ec_key_st, ptr %12, i32 0, i32 11
  %14 = load ptr, ptr %13, align 8, !tbaa !51
  %15 = load ptr, ptr %4, align 8, !tbaa !18
  %16 = getelementptr inbounds nuw %struct.ec_key_st, ptr %15, i32 0, i32 12
  %17 = load ptr, ptr %16, align 8, !tbaa !52
  %18 = load ptr, ptr %4, align 8, !tbaa !18
  %19 = getelementptr inbounds nuw %struct.ec_key_st, ptr %18, i32 0, i32 1
  %20 = load ptr, ptr %19, align 8, !tbaa !44
  %21 = call ptr @ossl_ec_key_new_method_int(ptr noundef %14, ptr noundef %17, ptr noundef %20)
  store ptr %21, ptr %6, align 8, !tbaa !18
  %22 = icmp eq ptr %21, null
  br i1 %22, label %23, label %24

23:                                               ; preds = %11
  store ptr null, ptr %3, align 8
  store i32 1, ptr %7, align 4
  br label %233

24:                                               ; preds = %11
  %25 = load ptr, ptr %4, align 8, !tbaa !18
  %26 = getelementptr inbounds nuw %struct.ec_key_st, ptr %25, i32 0, i32 3
  %27 = load ptr, ptr %26, align 8, !tbaa !53
  %28 = icmp ne ptr %27, null
  br i1 %28, label %29, label %74

29:                                               ; preds = %24
  %30 = load i32, ptr %5, align 4, !tbaa !16
  %31 = and i32 %30, 4
  %32 = icmp ne i32 %31, 0
  br i1 %32, label %33, label %74

33:                                               ; preds = %29
  %34 = load ptr, ptr %4, align 8, !tbaa !18
  %35 = getelementptr inbounds nuw %struct.ec_key_st, ptr %34, i32 0, i32 11
  %36 = load ptr, ptr %35, align 8, !tbaa !51
  %37 = load ptr, ptr %4, align 8, !tbaa !18
  %38 = getelementptr inbounds nuw %struct.ec_key_st, ptr %37, i32 0, i32 12
  %39 = load ptr, ptr %38, align 8, !tbaa !52
  %40 = load ptr, ptr %4, align 8, !tbaa !18
  %41 = getelementptr inbounds nuw %struct.ec_key_st, ptr %40, i32 0, i32 3
  %42 = load ptr, ptr %41, align 8, !tbaa !53
  %43 = getelementptr inbounds nuw %struct.ec_group_st, ptr %42, i32 0, i32 0
  %44 = load ptr, ptr %43, align 8, !tbaa !54
  %45 = call ptr @ossl_ec_group_new_ex(ptr noundef %36, ptr noundef %39, ptr noundef %44)
  %46 = load ptr, ptr %6, align 8, !tbaa !18
  %47 = getelementptr inbounds nuw %struct.ec_key_st, ptr %46, i32 0, i32 3
  store ptr %45, ptr %47, align 8, !tbaa !53
  %48 = load ptr, ptr %6, align 8, !tbaa !18
  %49 = getelementptr inbounds nuw %struct.ec_key_st, ptr %48, i32 0, i32 3
  %50 = load ptr, ptr %49, align 8, !tbaa !53
  %51 = icmp eq ptr %50, null
  br i1 %51, label %61, label %52

52:                                               ; preds = %33
  %53 = load ptr, ptr %6, align 8, !tbaa !18
  %54 = getelementptr inbounds nuw %struct.ec_key_st, ptr %53, i32 0, i32 3
  %55 = load ptr, ptr %54, align 8, !tbaa !53
  %56 = load ptr, ptr %4, align 8, !tbaa !18
  %57 = getelementptr inbounds nuw %struct.ec_key_st, ptr %56, i32 0, i32 3
  %58 = load ptr, ptr %57, align 8, !tbaa !53
  %59 = call i32 @EC_GROUP_copy(ptr noundef %55, ptr noundef %58)
  %60 = icmp ne i32 %59, 0
  br i1 %60, label %62, label %61

61:                                               ; preds = %52, %33
  br label %231

62:                                               ; preds = %52
  %63 = load ptr, ptr %4, align 8, !tbaa !18
  %64 = getelementptr inbounds nuw %struct.ec_key_st, ptr %63, i32 0, i32 0
  %65 = load ptr, ptr %64, align 8, !tbaa !55
  %66 = icmp ne ptr %65, null
  br i1 %66, label %67, label %73

67:                                               ; preds = %62
  %68 = load ptr, ptr %4, align 8, !tbaa !18
  %69 = getelementptr inbounds nuw %struct.ec_key_st, ptr %68, i32 0, i32 0
  %70 = load ptr, ptr %69, align 8, !tbaa !55
  %71 = load ptr, ptr %6, align 8, !tbaa !18
  %72 = getelementptr inbounds nuw %struct.ec_key_st, ptr %71, i32 0, i32 0
  store ptr %70, ptr %72, align 8, !tbaa !55
  br label %73

73:                                               ; preds = %67, %62
  br label %74

74:                                               ; preds = %73, %29, %24
  %75 = load ptr, ptr %4, align 8, !tbaa !18
  %76 = getelementptr inbounds nuw %struct.ec_key_st, ptr %75, i32 0, i32 4
  %77 = load ptr, ptr %76, align 8, !tbaa !56
  %78 = icmp ne ptr %77, null
  br i1 %78, label %79, label %111

79:                                               ; preds = %74
  %80 = load i32, ptr %5, align 4, !tbaa !16
  %81 = and i32 %80, 2
  %82 = icmp ne i32 %81, 0
  br i1 %82, label %83, label %111

83:                                               ; preds = %79
  %84 = load ptr, ptr %6, align 8, !tbaa !18
  %85 = getelementptr inbounds nuw %struct.ec_key_st, ptr %84, i32 0, i32 3
  %86 = load ptr, ptr %85, align 8, !tbaa !53
  %87 = icmp eq ptr %86, null
  br i1 %87, label %88, label %89

88:                                               ; preds = %83
  br label %231

89:                                               ; preds = %83
  %90 = load ptr, ptr %6, align 8, !tbaa !18
  %91 = getelementptr inbounds nuw %struct.ec_key_st, ptr %90, i32 0, i32 3
  %92 = load ptr, ptr %91, align 8, !tbaa !53
  %93 = call ptr @EC_POINT_new(ptr noundef %92)
  %94 = load ptr, ptr %6, align 8, !tbaa !18
  %95 = getelementptr inbounds nuw %struct.ec_key_st, ptr %94, i32 0, i32 4
  store ptr %93, ptr %95, align 8, !tbaa !56
  %96 = load ptr, ptr %6, align 8, !tbaa !18
  %97 = getelementptr inbounds nuw %struct.ec_key_st, ptr %96, i32 0, i32 4
  %98 = load ptr, ptr %97, align 8, !tbaa !56
  %99 = icmp eq ptr %98, null
  br i1 %99, label %109, label %100

100:                                              ; preds = %89
  %101 = load ptr, ptr %6, align 8, !tbaa !18
  %102 = getelementptr inbounds nuw %struct.ec_key_st, ptr %101, i32 0, i32 4
  %103 = load ptr, ptr %102, align 8, !tbaa !56
  %104 = load ptr, ptr %4, align 8, !tbaa !18
  %105 = getelementptr inbounds nuw %struct.ec_key_st, ptr %104, i32 0, i32 4
  %106 = load ptr, ptr %105, align 8, !tbaa !56
  %107 = call i32 @EC_POINT_copy(ptr noundef %103, ptr noundef %106)
  %108 = icmp ne i32 %107, 0
  br i1 %108, label %110, label %109

109:                                              ; preds = %100, %89
  br label %231

110:                                              ; preds = %100
  br label %111

111:                                              ; preds = %110, %79, %74
  %112 = load ptr, ptr %4, align 8, !tbaa !18
  %113 = getelementptr inbounds nuw %struct.ec_key_st, ptr %112, i32 0, i32 5
  %114 = load ptr, ptr %113, align 8, !tbaa !57
  %115 = icmp ne ptr %114, null
  br i1 %115, label %116, label %167

116:                                              ; preds = %111
  %117 = load i32, ptr %5, align 4, !tbaa !16
  %118 = and i32 %117, 1
  %119 = icmp ne i32 %118, 0
  br i1 %119, label %120, label %167

120:                                              ; preds = %116
  %121 = load ptr, ptr %6, align 8, !tbaa !18
  %122 = getelementptr inbounds nuw %struct.ec_key_st, ptr %121, i32 0, i32 3
  %123 = load ptr, ptr %122, align 8, !tbaa !53
  %124 = icmp eq ptr %123, null
  br i1 %124, label %125, label %126

125:                                              ; preds = %120
  br label %231

126:                                              ; preds = %120
  %127 = call ptr @BN_new()
  %128 = load ptr, ptr %6, align 8, !tbaa !18
  %129 = getelementptr inbounds nuw %struct.ec_key_st, ptr %128, i32 0, i32 5
  store ptr %127, ptr %129, align 8, !tbaa !57
  %130 = load ptr, ptr %6, align 8, !tbaa !18
  %131 = getelementptr inbounds nuw %struct.ec_key_st, ptr %130, i32 0, i32 5
  %132 = load ptr, ptr %131, align 8, !tbaa !57
  %133 = icmp eq ptr %132, null
  br i1 %133, label %143, label %134

134:                                              ; preds = %126
  %135 = load ptr, ptr %6, align 8, !tbaa !18
  %136 = getelementptr inbounds nuw %struct.ec_key_st, ptr %135, i32 0, i32 5
  %137 = load ptr, ptr %136, align 8, !tbaa !57
  %138 = load ptr, ptr %4, align 8, !tbaa !18
  %139 = getelementptr inbounds nuw %struct.ec_key_st, ptr %138, i32 0, i32 5
  %140 = load ptr, ptr %139, align 8, !tbaa !57
  %141 = call ptr @BN_copy(ptr noundef %137, ptr noundef %140)
  %142 = icmp ne ptr %141, null
  br i1 %142, label %144, label %143

143:                                              ; preds = %134, %126
  br label %231

144:                                              ; preds = %134
  %145 = load ptr, ptr %6, align 8, !tbaa !18
  %146 = getelementptr inbounds nuw %struct.ec_key_st, ptr %145, i32 0, i32 3
  %147 = load ptr, ptr %146, align 8, !tbaa !53
  %148 = getelementptr inbounds nuw %struct.ec_group_st, ptr %147, i32 0, i32 0
  %149 = load ptr, ptr %148, align 8, !tbaa !54
  %150 = getelementptr inbounds nuw %struct.ec_method_st, ptr %149, i32 0, i32 45
  %151 = load ptr, ptr %150, align 8, !tbaa !58
  %152 = icmp ne ptr %151, null
  br i1 %152, label %153, label %166

153:                                              ; preds = %144
  %154 = load ptr, ptr %6, align 8, !tbaa !18
  %155 = getelementptr inbounds nuw %struct.ec_key_st, ptr %154, i32 0, i32 3
  %156 = load ptr, ptr %155, align 8, !tbaa !53
  %157 = getelementptr inbounds nuw %struct.ec_group_st, ptr %156, i32 0, i32 0
  %158 = load ptr, ptr %157, align 8, !tbaa !54
  %159 = getelementptr inbounds nuw %struct.ec_method_st, ptr %158, i32 0, i32 45
  %160 = load ptr, ptr %159, align 8, !tbaa !58
  %161 = load ptr, ptr %6, align 8, !tbaa !18
  %162 = load ptr, ptr %4, align 8, !tbaa !18
  %163 = call i32 %160(ptr noundef %161, ptr noundef %162)
  %164 = icmp eq i32 %163, 0
  br i1 %164, label %165, label %166

165:                                              ; preds = %153
  br label %231

166:                                              ; preds = %153, %144
  br label %167

167:                                              ; preds = %166, %116, %111
  %168 = load i32, ptr %5, align 4, !tbaa !16
  %169 = and i32 %168, 128
  %170 = icmp ne i32 %169, 0
  br i1 %170, label %171, label %182

171:                                              ; preds = %167
  %172 = load ptr, ptr %4, align 8, !tbaa !18
  %173 = getelementptr inbounds nuw %struct.ec_key_st, ptr %172, i32 0, i32 6
  %174 = load i32, ptr %173, align 8, !tbaa !60
  %175 = load ptr, ptr %6, align 8, !tbaa !18
  %176 = getelementptr inbounds nuw %struct.ec_key_st, ptr %175, i32 0, i32 6
  store i32 %174, ptr %176, align 8, !tbaa !60
  %177 = load ptr, ptr %4, align 8, !tbaa !18
  %178 = getelementptr inbounds nuw %struct.ec_key_st, ptr %177, i32 0, i32 7
  %179 = load i32, ptr %178, align 4, !tbaa !61
  %180 = load ptr, ptr %6, align 8, !tbaa !18
  %181 = getelementptr inbounds nuw %struct.ec_key_st, ptr %180, i32 0, i32 7
  store i32 %179, ptr %181, align 4, !tbaa !61
  br label %182

182:                                              ; preds = %171, %167
  %183 = load ptr, ptr %4, align 8, !tbaa !18
  %184 = getelementptr inbounds nuw %struct.ec_key_st, ptr %183, i32 0, i32 2
  %185 = load i32, ptr %184, align 8, !tbaa !62
  %186 = load ptr, ptr %6, align 8, !tbaa !18
  %187 = getelementptr inbounds nuw %struct.ec_key_st, ptr %186, i32 0, i32 2
  store i32 %185, ptr %187, align 8, !tbaa !62
  %188 = load ptr, ptr %4, align 8, !tbaa !18
  %189 = getelementptr inbounds nuw %struct.ec_key_st, ptr %188, i32 0, i32 9
  %190 = load i32, ptr %189, align 4, !tbaa !63
  %191 = load ptr, ptr %6, align 8, !tbaa !18
  %192 = getelementptr inbounds nuw %struct.ec_key_st, ptr %191, i32 0, i32 9
  store i32 %190, ptr %192, align 4, !tbaa !63
  %193 = load ptr, ptr %6, align 8, !tbaa !18
  %194 = getelementptr inbounds nuw %struct.ec_key_st, ptr %193, i32 0, i32 10
  %195 = load ptr, ptr %4, align 8, !tbaa !18
  %196 = getelementptr inbounds nuw %struct.ec_key_st, ptr %195, i32 0, i32 10
  %197 = call i32 @CRYPTO_dup_ex_data(i32 noundef 8, ptr noundef %194, ptr noundef %196)
  %198 = icmp ne i32 %197, 0
  br i1 %198, label %200, label %199

199:                                              ; preds = %182
  br label %231

200:                                              ; preds = %182
  %201 = load ptr, ptr %6, align 8, !tbaa !18
  %202 = getelementptr inbounds nuw %struct.ec_key_st, ptr %201, i32 0, i32 0
  %203 = load ptr, ptr %202, align 8, !tbaa !55
  %204 = icmp ne ptr %203, null
  br i1 %204, label %205, label %229

205:                                              ; preds = %200
  %206 = load ptr, ptr %6, align 8, !tbaa !18
  %207 = getelementptr inbounds nuw %struct.ec_key_st, ptr %206, i32 0, i32 0
  %208 = load ptr, ptr %207, align 8, !tbaa !55
  %209 = getelementptr inbounds nuw %struct.ec_key_method_st, ptr %208, i32 0, i32 4
  %210 = load ptr, ptr %209, align 8, !tbaa !64
  %211 = icmp ne ptr %210, null
  br i1 %211, label %212, label %229

212:                                              ; preds = %205
  %213 = load i32, ptr %5, align 4, !tbaa !16
  %214 = and i32 %213, 3
  %215 = icmp ne i32 %214, 3
  br i1 %215, label %216, label %217

216:                                              ; preds = %212
  br label %231

217:                                              ; preds = %212
  %218 = load ptr, ptr %6, align 8, !tbaa !18
  %219 = getelementptr inbounds nuw %struct.ec_key_st, ptr %218, i32 0, i32 0
  %220 = load ptr, ptr %219, align 8, !tbaa !55
  %221 = getelementptr inbounds nuw %struct.ec_key_method_st, ptr %220, i32 0, i32 4
  %222 = load ptr, ptr %221, align 8, !tbaa !64
  %223 = load ptr, ptr %6, align 8, !tbaa !18
  %224 = load ptr, ptr %4, align 8, !tbaa !18
  %225 = call i32 %222(ptr noundef %223, ptr noundef %224)
  %226 = icmp eq i32 %225, 0
  br i1 %226, label %227, label %228

227:                                              ; preds = %217
  br label %231

228:                                              ; preds = %217
  br label %229

229:                                              ; preds = %228, %205, %200
  %230 = load ptr, ptr %6, align 8, !tbaa !18
  store ptr %230, ptr %3, align 8
  store i32 1, ptr %7, align 4
  br label %233

231:                                              ; preds = %227, %216, %199, %165, %143, %125, %109, %88, %61
  %232 = load ptr, ptr %6, align 8, !tbaa !18
  call void @EC_KEY_free(ptr noundef %232)
  store ptr null, ptr %3, align 8
  store i32 1, ptr %7, align 4
  br label %233

233:                                              ; preds = %231, %229, %23, %10
  call void @llvm.lifetime.end.p0(i64 8, ptr %6) #3
  %234 = load ptr, ptr %3, align 8
  ret ptr %234
}