; Function Attrs: nounwind uwtable
define ptr @ossl_ec_key_dup(ptr noundef %0, i32 noundef %1) local_unnamed_addr #0 {
  %3 = icmp eq ptr %0, null
  br i1 %3, label %4, label %5

4:                                                ; preds = %2
  tail call void @ERR_new() #4
  tail call void @ERR_set_debug(ptr noundef nonnull @.str, i32 noundef 602, ptr noundef nonnull @__func__.ossl_ec_key_dup) #4
  tail call void (i32, i32, ptr, ...) @ERR_set_error(i32 noundef 16, i32 noundef 786690, ptr noundef null) #4
  br label %99

5:                                                ; preds = %2
  %6 = getelementptr inbounds nuw i8, ptr %0, i64 80
  %7 = load ptr, ptr %6, align 8, !tbaa !41
  %8 = getelementptr inbounds nuw i8, ptr %0, i64 88
  %9 = load ptr, ptr %8, align 8, !tbaa !42
  %10 = getelementptr inbounds nuw i8, ptr %0, i64 8
  %11 = load ptr, ptr %10, align 8, !tbaa !33
  %12 = tail call ptr @ossl_ec_key_new_method_int(ptr noundef %7, ptr noundef %9, ptr noundef %11) #4
  %13 = icmp eq ptr %12, null
  br i1 %13, label %99, label %14

14:                                               ; preds = %5
  %15 = getelementptr inbounds nuw i8, ptr %0, i64 24
  %16 = load ptr, ptr %15, align 8, !tbaa !43
  %.not = icmp eq ptr %16, null
  %17 = and i32 %1, 4
  %.not65 = icmp eq i32 %17, 0
  %or.cond = or i1 %.not65, %.not
  br i1 %or.cond, label %31, label %18

18:                                               ; preds = %14
  %19 = load ptr, ptr %6, align 8, !tbaa !41
  %20 = load ptr, ptr %8, align 8, !tbaa !42
  %21 = load ptr, ptr %16, align 8, !tbaa !44
  %22 = tail call ptr @ossl_ec_group_new_ex(ptr noundef %19, ptr noundef %20, ptr noundef %21) #4
  %23 = getelementptr inbounds nuw i8, ptr %12, i64 24
  store ptr %22, ptr %23, align 8, !tbaa !43
  %24 = icmp eq ptr %22, null
  br i1 %24, label %98, label %25

25:                                               ; preds = %18
  %26 = load ptr, ptr %15, align 8, !tbaa !43
  %27 = tail call i32 @EC_GROUP_copy(ptr noundef nonnull %22, ptr noundef %26) #4
  %.not66 = icmp eq i32 %27, 0
  br i1 %.not66, label %98, label %28

28:                                               ; preds = %25
  %29 = load ptr, ptr %0, align 8, !tbaa !45
  %.not67 = icmp eq ptr %29, null
  br i1 %.not67, label %31, label %30

30:                                               ; preds = %28
  store ptr %29, ptr %12, align 8, !tbaa !45
  br label %31

31:                                               ; preds = %28, %30, %14
  %32 = getelementptr inbounds nuw i8, ptr %0, i64 32
  %33 = load ptr, ptr %32, align 8, !tbaa !46
  %.not68 = icmp eq ptr %33, null
  %34 = and i32 %1, 2
  %.not69 = icmp eq i32 %34, 0
  %or.cond80 = or i1 %.not69, %.not68
  br i1 %or.cond80, label %46, label %35

35:                                               ; preds = %31
  %36 = getelementptr inbounds nuw i8, ptr %12, i64 24
  %37 = load ptr, ptr %36, align 8, !tbaa !43
  %38 = icmp eq ptr %37, null
  br i1 %38, label %98, label %39

39:                                               ; preds = %35
  %40 = tail call ptr @EC_POINT_new(ptr noundef nonnull %37) #4
  %41 = getelementptr inbounds nuw i8, ptr %12, i64 32
  store ptr %40, ptr %41, align 8, !tbaa !46
  %42 = icmp eq ptr %40, null
  br i1 %42, label %98, label %43

43:                                               ; preds = %39
  %44 = load ptr, ptr %32, align 8, !tbaa !46
  %45 = tail call i32 @EC_POINT_copy(ptr noundef nonnull %40, ptr noundef %44) #4
  %.not70 = icmp eq i32 %45, 0
  br i1 %.not70, label %98, label %46

46:                                               ; preds = %43, %31
  %47 = getelementptr inbounds nuw i8, ptr %0, i64 40
  %48 = load ptr, ptr %47, align 8, !tbaa !47
  %.not71 = icmp eq ptr %48, null
  %49 = and i32 %1, 1
  %.not72 = icmp eq i32 %49, 0
  %or.cond81 = or i1 %.not72, %.not71
  br i1 %or.cond81, label %69, label %50

50:                                               ; preds = %46
  %51 = getelementptr inbounds nuw i8, ptr %12, i64 24
  %52 = load ptr, ptr %51, align 8, !tbaa !43
  %53 = icmp eq ptr %52, null
  br i1 %53, label %98, label %54

54:                                               ; preds = %50
  %55 = tail call ptr @BN_new() #4
  %56 = getelementptr inbounds nuw i8, ptr %12, i64 40
  store ptr %55, ptr %56, align 8, !tbaa !47
  %57 = icmp eq ptr %55, null
  br i1 %57, label %98, label %58

58:                                               ; preds = %54
  %59 = load ptr, ptr %47, align 8, !tbaa !47
  %60 = tail call ptr @BN_copy(ptr noundef nonnull %55, ptr noundef %59) #4
  %.not73 = icmp eq ptr %60, null
  br i1 %.not73, label %98, label %61

61:                                               ; preds = %58
  %62 = load ptr, ptr %51, align 8, !tbaa !43
  %63 = load ptr, ptr %62, align 8, !tbaa !44
  %64 = getelementptr inbounds nuw i8, ptr %63, i64 352
  %65 = load ptr, ptr %64, align 8, !tbaa !48
  %.not74 = icmp eq ptr %65, null
  br i1 %.not74, label %69, label %66

66:                                               ; preds = %61
  %67 = tail call i32 %65(ptr noundef nonnull %12, ptr noundef nonnull %0) #4
  %68 = icmp eq i32 %67, 0
  br i1 %68, label %98, label %69

69:                                               ; preds = %61, %66, %46
  %70 = and i32 %1, 128
  %.not75 = icmp eq i32 %70, 0
  br i1 %.not75, label %78, label %71

71:                                               ; preds = %69
  %72 = getelementptr inbounds nuw i8, ptr %0, i64 48
  %73 = load i32, ptr %72, align 8, !tbaa !50
  %74 = getelementptr inbounds nuw i8, ptr %12, i64 48
  store i32 %73, ptr %74, align 8, !tbaa !50
  %75 = getelementptr inbounds nuw i8, ptr %0, i64 52
  %76 = load i32, ptr %75, align 4, !tbaa !51
  %77 = getelementptr inbounds nuw i8, ptr %12, i64 52
  store i32 %76, ptr %77, align 4, !tbaa !51
  br label %78

78:                                               ; preds = %71, %69
  %79 = getelementptr inbounds nuw i8, ptr %0, i64 16
  %80 = load i32, ptr %79, align 8, !tbaa !52
  %81 = getelementptr inbounds nuw i8, ptr %12, i64 16
  store i32 %80, ptr %81, align 8, !tbaa !52
  %82 = getelementptr inbounds nuw i8, ptr %0, i64 60
  %83 = load i32, ptr %82, align 4, !tbaa !53
  %84 = getelementptr inbounds nuw i8, ptr %12, i64 60
  store i32 %83, ptr %84, align 4, !tbaa !53
  %85 = getelementptr inbounds nuw i8, ptr %12, i64 64
  %86 = getelementptr inbounds nuw i8, ptr %0, i64 64
  %87 = tail call i32 @CRYPTO_dup_ex_data(i32 noundef 8, ptr noundef nonnull %85, ptr noundef nonnull %86) #4
  %.not76 = icmp eq i32 %87, 0
  br i1 %.not76, label %98, label %88

88:                                               ; preds = %78
  %89 = load ptr, ptr %12, align 8, !tbaa !45
  %.not77 = icmp eq ptr %89, null
  br i1 %.not77, label %99, label %90

90:                                               ; preds = %88
  %91 = getelementptr inbounds nuw i8, ptr %89, i64 32
  %92 = load ptr, ptr %91, align 8, !tbaa !54
  %.not78 = icmp eq ptr %92, null
  br i1 %.not78, label %99, label %93

93:                                               ; preds = %90
  %94 = and i32 %1, 3
  %.not79 = icmp eq i32 %94, 3
  br i1 %.not79, label %95, label %98

95:                                               ; preds = %93
  %96 = tail call i32 %92(ptr noundef nonnull %12, ptr noundef nonnull %0) #4
  %97 = icmp eq i32 %96, 0
  br i1 %97, label %98, label %99

98:                                               ; preds = %95, %93, %78, %66, %54, %58, %50, %39, %43, %35, %18, %25
  tail call void @EC_KEY_free(ptr noundef nonnull %12) #4
  br label %99

99:                                               ; preds = %88, %90, %95, %5, %98, %4
  %.0 = phi ptr [ null, %4 ], [ null, %98 ], [ null, %5 ], [ %12, %95 ], [ %12, %90 ], [ %12, %88 ]
  ret ptr %.0
}